; Function Attrs: mustprogress uwtable
define void @_ZNK2cv16MatConstIterator3posEPi(ptr noundef nonnull readonly align 8 captures(none) dereferenceable(40) %0, ptr noundef writeonly %1) local_unnamed_addr #1 align 2 personality ptr @__gxx_personality_v0 {
  %3 = alloca %"class.std::__cxx11::basic_string", align 8
  %4 = alloca %"class.std::allocator", align 1
  %5 = load ptr, ptr %0, align 8, !tbaa !57
  %6 = icmp ne ptr %5, null
  %7 = icmp ne ptr %1, null
  %or.cond = and i1 %7, %6
  br i1 %or.cond, label %18, label %8

8:                                                ; preds = %2
  call void @llvm.lifetime.start.p0(i64 32, ptr nonnull %3) #14
  call void @llvm.lifetime.start.p0(i64 1, ptr nonnull %4) #14
  call void @_ZNSt7__cxx1112basic_stringIcSt11char_traitsIcESaIcEEC2EPKcRKS3_(ptr noundef nonnull align 8 dereferenceable(32) %3, ptr noundef nonnull @.str.6, ptr noundef nonnull align 1 dereferenceable(1) %4)
  invoke void @_ZN2cv5errorEiRKNSt7__cxx1112basic_stringIcSt11char_traitsIcESaIcEEEPKcS9_i(i32 noundef -215, ptr noundef nonnull align 8 dereferenceable(32) %3, ptr noundef nonnull @__func__._ZNK2cv16MatConstIterator3posEPi, ptr noundef nonnull @.str.1, i32 noundef 200) #15
          to label %9 unwind label %10

9:                                                ; preds = %8
  unreachable

10:                                               ; preds = %8
  %11 = landingpad { ptr, i32 }
          cleanup
  %12 = load ptr, ptr %3, align 8, !tbaa !14
  %13 = getelementptr inbounds nuw i8, ptr %3, i64 16
  %14 = icmp eq ptr %12, %13
  br i1 %14, label %_ZNKSt7__cxx1112basic_stringIcSt11char_traitsIcESaIcEE11_M_is_localEv.exit.thread.i.i, label %_ZNKSt7__cxx1112basic_stringIcSt11char_traitsIcESaIcEE11_M_is_localEv.exit.i.i

_ZNKSt7__cxx1112basic_stringIcSt11char_traitsIcESaIcEE11_M_is_localEv.exit.thread.i.i: ; preds = %10
  %15 = getelementptr inbounds nuw i8, ptr %3, i64 8
  %16 = load i64, ptr %15, align 8, !tbaa !18
  %17 = icmp ult i64 %16, 16
  call void @llvm.assume(i1 %17)
  br label %_ZNSt7__cxx1112basic_stringIcSt11char_traitsIcESaIcEED2Ev.exit

_ZNKSt7__cxx1112basic_stringIcSt11char_traitsIcESaIcEE11_M_is_localEv.exit.i.i: ; preds = %10
  call void @_ZdlPv(ptr noundef %12) #16
  br label %_ZNSt7__cxx1112basic_stringIcSt11char_traitsIcESaIcEED2Ev.exit

_ZNSt7__cxx1112basic_stringIcSt11char_traitsIcESaIcEED2Ev.exit: ; preds = %_ZNKSt7__cxx1112basic_stringIcSt11char_traitsIcESaIcEE11_M_is_localEv.exit.i.i, %_ZNKSt7__cxx1112basic_stringIcSt11char_traitsIcESaIcEE11_M_is_localEv.exit.thread.i.i
  call void @llvm.lifetime.end.p0(i64 1, ptr nonnull %4) #14
  call void @llvm.lifetime.end.p0(i64 32, ptr nonnull %3) #14
  resume { ptr, i32 } %11

18:                                               ; preds = %2
  %19 = getelementptr inbounds nuw i8, ptr %5, i64 72
  %20 = load ptr, ptr %19, align 8, !tbaa !60
  %21 = getelementptr inbounds nuw i8, ptr %5, i64 4
  %22 = load i32, ptr %21, align 4, !tbaa !36
  %23 = icmp sgt i32 %22, 0
  br i1 %23, label %.lr.ph.preheader, label %._crit_edge

.lr.ph.preheader:                                 ; preds = %18
  %24 = getelementptr inbounds nuw i8, ptr %0, i64 16
  %25 = load ptr, ptr %24, align 8, !tbaa !59
  %26 = ptrtoint ptr %25 to i64
  %27 = getelementptr inbounds nuw i8, ptr %5, i64 16
  %28 = load ptr, ptr %27, align 8, !tbaa !27
  %29 = ptrtoint ptr %28 to i64
  %30 = sub i64 %26, %29
  br label %.lr.ph

._crit_edge:                                      ; preds = %.lr.ph, %18
  ret void

.lr.ph:                                           ; preds = %.lr.ph.preheader, %.lr.ph
  %indvars.iv = phi i64 [ 0, %.lr.ph.preheader ], [ %indvars.iv.next, %.lr.ph ]
  %.01721 = phi i64 [ %30, %.lr.ph.preheader ], [ %.recomposed, %.lr.ph ]
  %31 = getelementptr inbounds nuw i64, ptr %20, i64 %indvars.iv
  %32 = load i64, ptr %31, align 8, !tbaa !42
  %33 = udiv i64 %.01721, %32
  %34 = mul i64 %33, %32
  %.recomposed = urem i64 %.01721, %32
  %35 = trunc i64 %33 to i32
  %36 = getelementptr inbounds nuw i32, ptr %1, i64 %indvars.iv
  store i32 %35, ptr %36, align 4, !tbaa !38
  %indvars.iv.next = add nuw nsw i64 %indvars.iv, 1
  %37 = load i32, ptr %21, align 4, !tbaa !36
  %38 = sext i32 %37 to i64
  %39 = icmp slt i64 %indvars.iv.next, %38
  br i1 %39, label %.lr.ph, label %._crit_edge, !llvm.loop !62
}